******************************************************************************
                  TI ARM Linker Unix v5.1.6                    
******************************************************************************
>> Linked Tue Nov  4 15:10:38 2014

OUTPUT FILE NAME:   <launchpad-gps.out>
ENTRY POINT SYMBOL: "_c_int00"  address: 000024fd


MEMORY CONFIGURATION

         name            origin    length      used     unused   attr    fill
----------------------  --------  ---------  --------  --------  ----  --------
  FLASH                 00000000   00100000  00002d9c  000fd264  R  X
  SRAM                  20000000   00040000  00000094  0003ff6c  RW X


SEGMENT ALLOCATION MAP

run origin  load origin   length   init length attrs members
----------  ----------- ---------- ----------- ----- -------
00000000    00000000    00002da0   00002da0    r-x
  00000000    00000000    00000208   00000208    r-- .intvecs
  00000208    00000208    0000278c   0000278c    r-x .text
  00002994    00002994    000003c8   000003c8    r-- .const
  00002d60    00002d60    00000040   00000040    r-- .cinit
20000000    20000000    00000094   00000000    rw-
  20000000    20000000    00000064   00000000    rw- .stack
  20000064    20000064    00000024   00000000    rw- .data
  20000088    20000088    00000008   00000000    rw- .sysmem
  20000090    20000090    00000004   00000000    rw- .bss


SECTION ALLOCATION MAP

 output                                  attributes/
section   page    origin      length       input sections
--------  ----  ----------  ----------   ----------------
.intvecs   0    00000000    00000208     
                  00000000    00000208     tm4c1294ncpdt_startup_ccs.obj (.intvecs)

.init_array 
*          0    00000000    00000000     UNINITIALIZED

.text      0    00000208    0000278c     
                  00000208    00000ec0     rtsv7M4_T_le_v4SPD16_eabi.lib : _printfi.obj (.text)
                  000010c8    000003cc                                   : memory.obj (.text)
                  00001494    00000258     main.obj (.text)
                  000016ec    000001fc     driverlib.lib : sysctl.obj (.text:SysCtlClockFreqSet)
                  000018e8    000001f4     rtsv7M4_T_le_v4SPD16_eabi.lib : ull_div_t2.obj (.text)
                  00001adc    000001b6                                   : fd_add_t2.obj (.text)
                  00001c92    00000136                                   : fd_div_t2.obj (.text)
                  00001dc8    00000130     driverlib.lib : gpio.obj (.text:GPIOPadConfigSet)
                  00001ef8    000000fc     rtsv7M4_T_le_v4SPD16_eabi.lib : fd_mul_t2.obj (.text)
                  00001ff4    0000009c                                   : memcpy_t2.obj (.text)
                  00002090    00000094                                   : auto_init.obj (.text)
                  00002124    00000086                                   : fd_cmp_t2.obj (.text:__aeabi_cdcmple)
                  000021aa    00000086                                   : fd_cmp_t2.obj (.text:__aeabi_cdrcmple)
                  00002230    00000078                                   : memset_t2.obj (.text)
                  000022a8    00000060     driverlib.lib : interrupt.obj (.text:IntEnable)
                  00002308    00000060     rtsv7M4_T_le_v4SPD16_eabi.lib : sprintf.obj (.text)
                  00002368    0000005e                                   : copy_decompress_rle.obj (.text)
                  000023c6    0000005a                                   : ltoa.obj (.text)
                  00002420    0000004c                                   : atoi.obj (.text)
                  0000246c    00000048     driverlib.lib : gpio.obj (.text:GPIOPinConfigure)
                  000024b4    00000048                   : sysctl.obj (.text:_SysCtlFrequencyGet)
                  000024fc    00000048     rtsv7M4_T_le_v4SPD16_eabi.lib : boot.obj (.text)
                  00002544    00000048                                   : fd_toi_t2.obj (.text)
                  0000258c    00000044                                   : cpy_tbl.obj (.text)
                  000025d0    00000044                                   : exit.obj (.text)
                  00002614    00000044                                   : xdtest.obj (.text)
                  00002658    00000040     driverlib.lib : uart.obj (.text:UARTConfigSetExpClk)
                  00002698    00000040     rtsv7M4_T_le_v4SPD16_eabi.lib : strtok.obj (.text)
                  000026d8    00000034     driverlib.lib : sysctl.obj (.text:SysCtlPeripheralEnable)
                  0000270c    0000002e     rtsv7M4_T_le_v4SPD16_eabi.lib : i_tofd_t2.obj (.text)
                  0000273a    0000002a     driverlib.lib : gpio.obj (.text:GPIODirModeSet)
                  00002764    0000002a     rtsv7M4_T_le_v4SPD16_eabi.lib : strspn.obj (.text)
                  0000278e    00000022                                   : strcspn.obj (.text)
                  000027b0    0000001c     driverlib.lib : uart.obj (.text:UARTDisable)
                  000027cc    0000001c                   : sysctl.obj (.text:_SysCtlMemTimingGet)
                  000027e8    0000001c     rtsv7M4_T_le_v4SPD16_eabi.lib : memccpy.obj (.text)
                  00002804    0000001c                                   : strdup.obj (.text)
                  00002820    0000001a                                   : strcat.obj (.text)
                  0000283a    00000018     driverlib.lib : gpio.obj (.text:GPIOPinTypeGPIOOutput)
                  00002852    00000002     --HOLE-- [fill = 0]
                  00002854    00000018     rtsv7M4_T_le_v4SPD16_eabi.lib : args_main.obj (.text)
                  0000286c    00000018                                   : ll_mul_t2.obj (.text)
                  00002884    00000018                                   : strcmp.obj (.text)
                  0000289c    00000014     driverlib.lib : uart.obj (.text:UARTEnable)
                  000028b0    00000014     rtsv7M4_T_le_v4SPD16_eabi.lib : _lock.obj (.text)
                  000028c4    00000014                                   : strlen.obj (.text)
                  000028d8    00000012     driverlib.lib : gpio.obj (.text:GPIOPinTypeUART)
                  000028ea    00000012     rtsv7M4_T_le_v4SPD16_eabi.lib : copy_zero_init.obj (.text:decompress:ZI)
                  000028fc    00000012                                   : xdclass.obj (.text)
                  0000290e    00000010                                   : strcpy.obj (.text)
                  0000291e    0000000e     driverlib.lib : uart.obj (.text:UARTCharGetNonBlocking)
                  0000292c    0000000e     rtsv7M4_T_le_v4SPD16_eabi.lib : copy_decompress_none.obj (.text:decompress:none)
                  0000293a    0000000c     driverlib.lib : cpu.obj (.text:CPUcpsie)
                  00002946    0000000c                   : uart.obj (.text:UARTCharsAvail)
                  00002952    0000000c     tm4c1294ncpdt_startup_ccs.obj (.text)
                  0000295e    0000000a     driverlib.lib : interrupt.obj (.text:IntMasterEnable)
                  00002968    0000000a                   : uart.obj (.text:UARTCharPut)
                  00002972    0000000a                   : uart.obj (.text:UARTIntStatus)
                  0000297c    00000008                   : uart.obj (.text:UARTIntEnable)
                  00002984    00000006                   : gpio.obj (.text:GPIOPinWrite)
                  0000298a    00000006     rtsv7M4_T_le_v4SPD16_eabi.lib : copy_decompress_rle.obj (.text:decompress:rle24)
                  00002990    00000004     driverlib.lib : uart.obj (.text:UARTIntClear)

.const     0    00002994    000003c8     
                  00002994    00000120     driverlib.lib : sysctl.obj (.const:g_pppui32XTALtoVCO)
                  00002ab4    00000102     rtsv7M4_T_le_v4SPD16_eabi.lib : ctype.obj (.const:.string:_ctypes_)
                  00002bb6    00000002     main.obj (.const:.string)
                  00002bb8    00000090     driverlib.lib : gpio.obj (.const:g_pui32GPIOBaseAddrs)
                  00002c48    00000070                   : interrupt.obj (.const)
                  00002cb8    0000006c                   : sysctl.obj (.const:g_pui32Xtals)
                  00002d24    00000030                   : sysctl.obj (.const:g_sXTALtoMEMTIM)
                  00002d54    00000008                   : sysctl.obj (.const)

.cinit     0    00002d60    00000040     
                  00002d60    0000001b     (.cinit..data.load) [load image, compression = rle]
                  00002d7b    00000001     --HOLE-- [fill = 0]
                  00002d7c    0000000c     (__TI_handler_table)
                  00002d88    00000008     (.cinit..bss.load) [load image, compression = zero_init]
                  00002d90    00000010     (__TI_cinit_table)

.stack     0    20000000    00000064     UNINITIALIZED
                  20000000    00000064     --HOLE--

.data      0    20000064    00000024     UNINITIALIZED
                  20000064    0000000c     rtsv7M4_T_le_v4SPD16_eabi.lib : memory.obj (.data)
                  20000070    00000008                                   : _lock.obj (.data)
                  20000078    00000008                                   : exit.obj (.data)
                  20000080    00000004                                   : stkdepth_vars.obj (.data)
                  20000084    00000004                                   : strtok.obj (.data)

.sysmem    0    20000088    00000008     UNINITIALIZED
                  20000088    00000008     rtsv7M4_T_le_v4SPD16_eabi.lib : memory.obj (.sysmem)

.bss       0    20000090    00000004     UNINITIALIZED
                  20000090    00000004     (.common:ui32SysClkFreq)


LINKER GENERATED COPY TABLES

__TI_cinit_table @ 00002d90 records: 2, size/record: 8, table size: 16
	.data: load addr=00002d60, load size=0000001b bytes, run addr=20000064, run size=00000024 bytes, compression=rle
	.bss: load addr=00002d88, load size=00000008 bytes, run addr=20000090, run size=00000004 bytes, compression=zero_init


LINKER GENERATED HANDLER TABLE

__TI_handler_table @ 00002d7c records: 3, size/record: 4, table size: 12
	index: 0, handler: __TI_decompress_rle24
	index: 1, handler: __TI_decompress_none
	index: 2, handler: __TI_zero_init


GLOBAL SYMBOLS: SORTED ALPHABETICALLY BY Name 

address    name
--------   ----
000025d1   C$$EXIT
0000293b   CPUcpsie
0000273b   GPIODirModeSet
00001dc9   GPIOPadConfigSet
0000246d   GPIOPinConfigure
0000283b   GPIOPinTypeGPIOOutput
000028d9   GPIOPinTypeUART
00002985   GPIOPinWrite
000022a9   IntEnable
0000295f   IntMasterEnable
00002953   ResetISR
UNDEFED    SHT$$INIT_ARRAY$$Base
UNDEFED    SHT$$INIT_ARRAY$$Limit
000016ed   SysCtlClockFreqSet
000026d9   SysCtlPeripheralEnable
0000291f   UARTCharGetNonBlocking
00002969   UARTCharPut
00002947   UARTCharsAvail
00002659   UARTConfigSetExpClk
000027b1   UARTDisable
0000289d   UARTEnable
00002991   UARTIntClear
0000297d   UARTIntEnable
00001495   UARTIntHandler
00002973   UARTIntStatus
000028fd   _Dclass
00002615   _Dtest
20000064   __STACK_END
00000064   __STACK_SIZE
20000200   __STACK_TOP
00000008   __SYSMEM_SIZE
00002d90   __TI_CINIT_Base
00002da0   __TI_CINIT_Limit
00002d7c   __TI_Handler_Table_Base
00002d88   __TI_Handler_Table_Limit
00000001   __TI_args_main
00002091   __TI_auto_init
20000078   __TI_cleanup_ptr
0000292d   __TI_decompress_none
0000298b   __TI_decompress_rle24
2000007c   __TI_dtors_ptr
00000dbf   __TI_printfi
00000000   __TI_static_base__
000028eb   __TI_zero_init
00002125   __aeabi_cdcmpeq
00002125   __aeabi_cdcmple
000021ab   __aeabi_cdrcmple
00002545   __aeabi_d2iz
00001ae7   __aeabi_dadd
00001c93   __aeabi_ddiv
00001ef9   __aeabi_dmul
00001add   __aeabi_dsub
0000270d   __aeabi_i2d
0000286d   __aeabi_lmul
00002231   __aeabi_memclr
00002231   __aeabi_memclr4
00002231   __aeabi_memclr8
00001ff5   __aeabi_memcpy
00001ff5   __aeabi_memcpy4
00001ff5   __aeabi_memcpy8
00002233   __aeabi_memset
00002233   __aeabi_memset4
00002233   __aeabi_memset8
000018e9   __aeabi_uldivmod
ffffffff   __binit__
ffffffff   __c_args__
20000000   __stack
00002855   _args_main
000024fd   _c_int00
00002ab4   _ctypes_
20000070   _lock
000028bf   _nop
000028b7   _register_lock
000028b1   _register_unlock
20000088   _sys_memory
20000074   _unlock
000025d5   abort
00002421   atoi
ffffffff   binit
0000145d   calloc
0000258d   copy_in
000025dd   exit
000011b7   free
00000000   g_pfnVectors
000023c7   ltoa
00001605   main
20000080   main_func_sp
00001155   malloc
0000137d   memalign
000027e9   memccpy
00001ff5   memcpy
00002239   memset
000010c9   minit
00001277   realloc
00002309   sprintf
00002821   strcat
00002885   strcmp
0000290f   strcpy
0000278f   strcspn
00002805   strdup
000028c5   strlen
00002765   strspn
00002699   strtok
20000090   ui32SysClkFreq


GLOBAL SYMBOLS: SORTED BY Symbol Address 

address    name
--------   ----
00000000   __TI_static_base__
00000000   g_pfnVectors
00000001   __TI_args_main
00000008   __SYSMEM_SIZE
00000064   __STACK_SIZE
00000dbf   __TI_printfi
000010c9   minit
00001155   malloc
000011b7   free
00001277   realloc
0000137d   memalign
0000145d   calloc
00001495   UARTIntHandler
00001605   main
000016ed   SysCtlClockFreqSet
000018e9   __aeabi_uldivmod
00001add   __aeabi_dsub
00001ae7   __aeabi_dadd
00001c93   __aeabi_ddiv
00001dc9   GPIOPadConfigSet
00001ef9   __aeabi_dmul
00001ff5   __aeabi_memcpy
00001ff5   __aeabi_memcpy4
00001ff5   __aeabi_memcpy8
00001ff5   memcpy
00002091   __TI_auto_init
00002125   __aeabi_cdcmpeq
00002125   __aeabi_cdcmple
000021ab   __aeabi_cdrcmple
00002231   __aeabi_memclr
00002231   __aeabi_memclr4
00002231   __aeabi_memclr8
00002233   __aeabi_memset
00002233   __aeabi_memset4
00002233   __aeabi_memset8
00002239   memset
000022a9   IntEnable
00002309   sprintf
000023c7   ltoa
00002421   atoi
0000246d   GPIOPinConfigure
000024fd   _c_int00
00002545   __aeabi_d2iz
0000258d   copy_in
000025d1   C$$EXIT
000025d5   abort
000025dd   exit
00002615   _Dtest
00002659   UARTConfigSetExpClk
00002699   strtok
000026d9   SysCtlPeripheralEnable
0000270d   __aeabi_i2d
0000273b   GPIODirModeSet
00002765   strspn
0000278f   strcspn
000027b1   UARTDisable
000027e9   memccpy
00002805   strdup
00002821   strcat
0000283b   GPIOPinTypeGPIOOutput
00002855   _args_main
0000286d   __aeabi_lmul
00002885   strcmp
0000289d   UARTEnable
000028b1   _register_unlock
000028b7   _register_lock
000028bf   _nop
000028c5   strlen
000028d9   GPIOPinTypeUART
000028eb   __TI_zero_init
000028fd   _Dclass
0000290f   strcpy
0000291f   UARTCharGetNonBlocking
0000292d   __TI_decompress_none
0000293b   CPUcpsie
00002947   UARTCharsAvail
00002953   ResetISR
0000295f   IntMasterEnable
00002969   UARTCharPut
00002973   UARTIntStatus
0000297d   UARTIntEnable
00002985   GPIOPinWrite
0000298b   __TI_decompress_rle24
00002991   UARTIntClear
00002ab4   _ctypes_
00002d7c   __TI_Handler_Table_Base
00002d88   __TI_Handler_Table_Limit
00002d90   __TI_CINIT_Base
00002da0   __TI_CINIT_Limit
20000000   __stack
20000064   __STACK_END
20000070   _lock
20000074   _unlock
20000078   __TI_cleanup_ptr
2000007c   __TI_dtors_ptr
20000080   main_func_sp
20000088   _sys_memory
20000090   ui32SysClkFreq
20000200   __STACK_TOP
ffffffff   __binit__
ffffffff   __c_args__
ffffffff   binit
UNDEFED    SHT$$INIT_ARRAY$$Base
UNDEFED    SHT$$INIT_ARRAY$$Limit

[104 symbols]
